target datalayout = "e-m:e-p270:32:32-p271:32:32-p272:64:64-i64:64-i128:128-f80:128-n8:16:32:64-S128"
target triple = "x86_64-pc-linux-gnu"

; Function Attrs: alwaysinline mustprogress nounwind uwtable
define linkonce_odr noundef i32 @_Z20crxPredictKParameteriii(i32 noundef %0, i32 noundef %1, i32 noundef %2) #3 comdat {
  %4 = alloca i32, align 4
  %5 = alloca i32, align 4
  %6 = alloca i32, align 4
  %7 = alloca i32, align 4
  store i32 %0, ptr %4, align 4, !tbaa !20
  store i32 %1, ptr %5, align 4, !tbaa !20
  store i32 %2, ptr %6, align 4, !tbaa !20
  call void @llvm.lifetime.start.p0(i64 4, ptr %7) #19
  %8 = load i32, ptr %4, align 4, !tbaa !20
  %9 = load i32, ptr %5, align 4, !tbaa !20
  %10 = load i32, ptr %4, align 4, !tbaa !20
  %11 = shl i32 1, %10
  %12 = ashr i32 %11, 1
  %13 = icmp slt i32 %9, %12
  %14 = zext i1 %13 to i32
  %15 = sub nsw i32 %8, %14
  %16 = load i32, ptr %5, align 4, !tbaa !20
  %17 = load i32, ptr %4, align 4, !tbaa !20
  %18 = ashr i32 %16, %17
  %19 = icmp sgt i32 %18, 2
  %20 = zext i1 %19 to i32
  %21 = add nsw i32 %15, %20
  %22 = load i32, ptr %5, align 4, !tbaa !20
  %23 = load i32, ptr %4, align 4, !tbaa !20
  %24 = ashr i32 %22, %23
  %25 = icmp sgt i32 %24, 5
  %26 = zext i1 %25 to i32
  %27 = add nsw i32 %21, %26
  store i32 %27, ptr %7, align 4, !tbaa !20
  %28 = load i32, ptr %6, align 4, !tbaa !20
  %29 = icmp ne i32 %28, 0
  br i1 %29, label %30, label %34

30:                                               ; preds = %3
  %31 = load i32, ptr %7, align 4, !tbaa !20
  %32 = load i32, ptr %6, align 4, !tbaa !20
  %33 = icmp slt i32 %31, %32
  br i1 %33, label %34, label %36

34:                                               ; preds = %30, %3
  %35 = load i32, ptr %7, align 4, !tbaa !20
  br label %38

36:                                               ; preds = %30
  %37 = load i32, ptr %6, align 4, !tbaa !20
  br label %38

38:                                               ; preds = %36, %34
  %39 = phi i32 [ %35, %34 ], [ %37, %36 ]
  call void @llvm.lifetime.end.p0(i64 4, ptr %7) #19
  ret i32 %39
}

; Function Attrs: mustprogress uwtable
define void @_Z18crxDecodeGolombTopP12CrxBitstreamiPiS1_(ptr noundef %0, i32 noundef %1, ptr noundef %2, ptr noundef %3) #0 {
  %5 = alloca ptr, align 8
  %6 = alloca i32, align 4
  %7 = alloca ptr, align 8
  %8 = alloca ptr, align 8
  %9 = alloca i32, align 4
  store ptr %0, ptr %5, align 8, !tbaa !29
  store i32 %1, ptr %6, align 4, !tbaa !20
  store ptr %2, ptr %7, align 8, !tbaa !65
  store ptr %3, ptr %8, align 8, !tbaa !65
  %10 = load ptr, ptr %7, align 8, !tbaa !65
  %11 = getelementptr inbounds i32, ptr %10, i64 0
  store i32 0, ptr %11, align 4, !tbaa !20
  br label %12

12:                                               ; preds = %16, %4
  %13 = load i32, ptr %6, align 4, !tbaa !20
  %14 = add nsw i32 %13, -1
  store i32 %14, ptr %6, align 4, !tbaa !20
  %15 = icmp sgt i32 %13, 0
  br i1 %15, label %16, label %43

16:                                               ; preds = %12
  %17 = load ptr, ptr %7, align 8, !tbaa !65
  %18 = getelementptr inbounds i32, ptr %17, i64 0
  %19 = load i32, ptr %18, align 4, !tbaa !20
  %20 = load ptr, ptr %7, align 8, !tbaa !65
  %21 = getelementptr inbounds i32, ptr %20, i64 1
  store i32 %19, ptr %21, align 4, !tbaa !20
  call void @llvm.lifetime.start.p0(i64 4, ptr %9) #19
  %22 = load ptr, ptr %5, align 8, !tbaa !29
  %23 = load ptr, ptr %8, align 8, !tbaa !65
  %24 = load i32, ptr %23, align 4, !tbaa !20
  %25 = call noundef i32 @_Z9crxReadQPP12CrxBitstreami(ptr noundef %22, i32 noundef %24)
  store i32 %25, ptr %9, align 4, !tbaa !20
  %26 = load i32, ptr %9, align 4, !tbaa !20
  %27 = and i32 %26, 1
  %28 = sub nsw i32 0, %27
  %29 = load i32, ptr %9, align 4, !tbaa !20
  %30 = lshr i32 %29, 1
  %31 = xor i32 %28, %30
  %32 = load ptr, ptr %7, align 8, !tbaa !65
  %33 = getelementptr inbounds i32, ptr %32, i64 1
  %34 = load i32, ptr %33, align 4, !tbaa !20
  %35 = add nsw i32 %34, %31
  store i32 %35, ptr %33, align 4, !tbaa !20
  %36 = load ptr, ptr %8, align 8, !tbaa !65
  %37 = load i32, ptr %36, align 4, !tbaa !20
  %38 = load i32, ptr %9, align 4, !tbaa !20
  %39 = call noundef i32 @_Z20crxPredictKParameteriii(i32 noundef %37, i32 noundef %38, i32 noundef 7)
  %40 = load ptr, ptr %8, align 8, !tbaa !65
  store i32 %39, ptr %40, align 4, !tbaa !20
  %41 = load ptr, ptr %7, align 8, !tbaa !65
  %42 = getelementptr inbounds nuw i32, ptr %41, i32 1
  store ptr %42, ptr %7, align 8, !tbaa !65
  call void @llvm.lifetime.end.p0(i64 4, ptr %9) #19
  br label %12, !llvm.loop !200

43:                                               ; preds = %12
  %44 = load ptr, ptr %7, align 8, !tbaa !65
  %45 = getelementptr inbounds i32, ptr %44, i64 0
  %46 = load i32, ptr %45, align 4, !tbaa !20
  %47 = add nsw i32 %46, 1
  %48 = load ptr, ptr %7, align 8, !tbaa !65
  %49 = getelementptr inbounds i32, ptr %48, i64 1
  store i32 %47, ptr %49, align 4, !tbaa !20
  ret void
}