; Function Attrs: mustprogress uwtable
define void @_Z18crxDecodeGolombTopP12CrxBitstreamiPiS1_(ptr noundef %0, i32 noundef %1, ptr noundef captures(none) initializes((0, 4)) %2, ptr noundef captures(none) %3) local_unnamed_addr #0 {
  store i32 0, ptr %2, align 4, !tbaa !19
  %5 = icmp sgt i32 %1, 0
  br i1 %5, label %.lr.ph, label %._crit_edge

.lr.ph:                                           ; preds = %4, %.lr.ph
  %.016 = phi i32 [ %6, %.lr.ph ], [ %1, %4 ]
  %.01415 = phi ptr [ %8, %.lr.ph ], [ %2, %4 ]
  %6 = add nsw i32 %.016, -1
  %7 = load i32, ptr %.01415, align 4, !tbaa !19
  %8 = getelementptr inbounds nuw i8, ptr %.01415, i64 4
  store i32 %7, ptr %8, align 4, !tbaa !19
  %9 = load i32, ptr %3, align 4, !tbaa !19
  %10 = tail call noundef i32 @_Z9crxReadQPP12CrxBitstreami(ptr noundef %0, i32 noundef %9)
  %11 = and i32 %10, 1
  %12 = sub nsw i32 0, %11
  %13 = lshr i32 %10, 1
  %14 = xor i32 %13, %12
  %15 = load i32, ptr %8, align 4, !tbaa !19
  %16 = add nsw i32 %14, %15
  store i32 %16, ptr %8, align 4, !tbaa !19
  %17 = load i32, ptr %3, align 4, !tbaa !19
  %18 = shl nuw i32 1, %17
  %19 = ashr i32 %18, 1
  %20 = icmp slt i32 %10, %19
  %.neg.i = sext i1 %20 to i32
  %21 = ashr i32 %10, %17
  %22 = icmp sgt i32 %21, 2
  %23 = zext i1 %22 to i32
  %24 = icmp sgt i32 %21, 5
  %25 = zext i1 %24 to i32
  %26 = add i32 %17, %23
  %27 = add i32 %26, %25
  %28 = add i32 %27, %.neg.i
  %29 = tail call i32 @llvm.smin.i32(i32 %28, i32 7)
  store i32 %29, ptr %3, align 4, !tbaa !19
  %30 = icmp samesign ugt i32 %.016, 1
  br i1 %30, label %.lr.ph, label %._crit_edge.loopexit, !llvm.loop !179

._crit_edge.loopexit:                             ; preds = %.lr.ph
  %.pre = load i32, ptr %8, align 4, !tbaa !19
  %31 = add nsw i32 %.pre, 1
  br label %._crit_edge

._crit_edge:                                      ; preds = %._crit_edge.loopexit, %4
  %32 = phi i32 [ 1, %4 ], [ %31, %._crit_edge.loopexit ]
  %.014.lcssa = phi ptr [ %2, %4 ], [ %8, %._crit_edge.loopexit ]
  %33 = getelementptr inbounds nuw i8, ptr %.014.lcssa, i64 4
  store i32 %32, ptr %33, align 4, !tbaa !19
  ret void
}